target datalayout = "e-m:e-p270:32:32-p271:32:32-p272:64:64-i64:64-i128:128-f80:128-n8:16:32:64-S128"
target triple = "x86_64-pc-linux-gnu"

%struct.ConvolveContext = type { ptr, %struct.FFFrameSync, [4 x [16 x ptr]], [4 x [16 x ptr]], [4 x ptr], [4 x ptr], [4 x i32], [4 x i32], [4 x i32], [4 x i32], [4 x i32], [4 x i32], [4 x i32], [4 x ptr], [4 x ptr], [4 x ptr], [4 x ptr], [4 x ptr], [4 x ptr], [4 x ptr], [4 x ptr], i32, i32, i32, float, i32, [4 x i32], ptr, ptr, ptr, ptr }
%struct.FFFrameSync = type { ptr, ptr, i32, %struct.AVRational, i64, ptr, ptr, i32, i32, i8, i8, ptr, i32, i32, i32, i32 }
%struct.AVRational = type { i32, i32 }
%struct.AVChannelLayout = type { i32, i32, %union.anon.1, ptr }
%union.anon.1 = type { i64 }
%struct.AVComplexFloat = type { float, float }
%struct.AVFrame = type { [8 x ptr], [8 x i32], ptr, i32, i32, i32, i32, i32, %struct.AVRational, i64, i64, %struct.AVRational, i32, ptr, i32, i32, [8 x ptr], ptr, i32, ptr, i32, i32, i32, i32, i32, i32, i32, i64, ptr, i32, ptr, ptr, i64, i64, i64, i64, ptr, %struct.AVChannelLayout, i64 }

; Function Attrs: alwaysinline nounwind willreturn memory(none) uwtable
define internal i32 @av_clip_c(i32 noundef %0, i32 noundef %1, i32 noundef %2) #5 {
  %4 = alloca i32, align 4
  %5 = alloca i32, align 4
  %6 = alloca i32, align 4
  %7 = alloca i32, align 4
  store i32 %0, ptr %5, align 4, !tbaa !37
  store i32 %1, ptr %6, align 4, !tbaa !37
  store i32 %2, ptr %7, align 4, !tbaa !37
  %8 = load i32, ptr %5, align 4, !tbaa !37
  %9 = load i32, ptr %6, align 4, !tbaa !37
  %10 = icmp slt i32 %8, %9
  br i1 %10, label %11, label %13

11:                                               ; preds = %3
  %12 = load i32, ptr %6, align 4, !tbaa !37
  store i32 %12, ptr %4, align 4
  br label %21

13:                                               ; preds = %3
  %14 = load i32, ptr %5, align 4, !tbaa !37
  %15 = load i32, ptr %7, align 4, !tbaa !37
  %16 = icmp sgt i32 %14, %15
  br i1 %16, label %17, label %19

17:                                               ; preds = %13
  %18 = load i32, ptr %7, align 4, !tbaa !37
  store i32 %18, ptr %4, align 4
  br label %21

19:                                               ; preds = %13
  %20 = load i32, ptr %5, align 4, !tbaa !37
  store i32 %20, ptr %4, align 4
  br label %21

21:                                               ; preds = %19, %17, %11
  %22 = load i32, ptr %4, align 4
  ret i32 %22
}

; Function Attrs: alwaysinline nounwind willreturn memory(none) uwtable
define internal zeroext i8 @av_clip_uint8_c(i32 noundef %0) #5 {
  %2 = alloca i8, align 1
  %3 = alloca i32, align 4
  store i32 %0, ptr %3, align 4, !tbaa !37
  %4 = load i32, ptr %3, align 4, !tbaa !37
  %5 = and i32 %4, -256
  %6 = icmp ne i32 %5, 0
  br i1 %6, label %7, label %12

7:                                                ; preds = %1
  %8 = load i32, ptr %3, align 4, !tbaa !37
  %9 = xor i32 %8, -1
  %10 = ashr i32 %9, 31
  %11 = trunc i32 %10 to i8
  store i8 %11, ptr %2, align 1
  br label %15

12:                                               ; preds = %1
  %13 = load i32, ptr %3, align 4, !tbaa !37
  %14 = trunc i32 %13 to i8
  store i8 %14, ptr %2, align 1
  br label %15

15:                                               ; preds = %12, %7
  %16 = load i8, ptr %2, align 1
  ret i8 %16
}

; Function Attrs: nounwind uwtable
define internal void @get_xoutput(ptr noundef %0, ptr noundef %1, ptr noundef %2, i32 noundef %3, i32 noundef %4, i32 noundef %5, i32 noundef %6, float noundef %7) #0 {
  %9 = alloca ptr, align 8
  %10 = alloca ptr, align 8
  %11 = alloca ptr, align 8
  %12 = alloca i32, align 4
  %13 = alloca i32, align 4
  %14 = alloca i32, align 4
  %15 = alloca i32, align 4
  %16 = alloca float, align 4
  %17 = alloca i32, align 4
  %18 = alloca i32, align 4
  %19 = alloca i32, align 4
  %20 = alloca ptr, align 8
  %21 = alloca i32, align 4
  %22 = alloca i32, align 4
  %23 = alloca ptr, align 8
  %24 = alloca i32, align 4
  store ptr %0, ptr %9, align 8, !tbaa !22
  store ptr %1, ptr %10, align 8, !tbaa !63
  store ptr %2, ptr %11, align 8, !tbaa !80
  store i32 %3, ptr %12, align 4, !tbaa !37
  store i32 %4, ptr %13, align 4, !tbaa !37
  store i32 %5, ptr %14, align 4, !tbaa !37
  store i32 %6, ptr %15, align 4, !tbaa !37
  store float %7, ptr %16, align 4, !tbaa !73
  call void @llvm.lifetime.start.p0(i64 4, ptr %17) #10
  %25 = load ptr, ptr %9, align 8, !tbaa !22
  %26 = getelementptr inbounds nuw %struct.ConvolveContext, ptr %25, i32 0, i32 21
  %27 = load i32, ptr %26, align 8, !tbaa !62
  %28 = shl i32 1, %27
  %29 = sub nsw i32 %28, 1
  store i32 %29, ptr %17, align 4, !tbaa !37
  %30 = load i32, ptr %17, align 4, !tbaa !37
  %31 = mul nsw i32 %30, 16
  %32 = sitofp i32 %31 to float
  %33 = load float, ptr %16, align 4, !tbaa !73
  %34 = fmul nsz float %33, %32
  store float %34, ptr %16, align 4, !tbaa !73
  %35 = load ptr, ptr %9, align 8, !tbaa !22
  %36 = getelementptr inbounds nuw %struct.ConvolveContext, ptr %35, i32 0, i32 21
  %37 = load i32, ptr %36, align 8, !tbaa !62
  %38 = icmp eq i32 %37, 8
  br i1 %38, label %39, label %94

39:                                               ; preds = %8
  call void @llvm.lifetime.start.p0(i64 4, ptr %18) #10
  store i32 0, ptr %18, align 4, !tbaa !37
  br label %40

40:                                               ; preds = %90, %39
  %41 = load i32, ptr %18, align 4, !tbaa !37
  %42 = load i32, ptr %13, align 4, !tbaa !37
  %43 = icmp slt i32 %41, %42
  br i1 %43, label %45, label %44

44:                                               ; preds = %40
  store i32 2, ptr %19, align 4
  call void @llvm.lifetime.end.p0(i64 4, ptr %18) #10
  br label %93

45:                                               ; preds = %40
  call void @llvm.lifetime.start.p0(i64 8, ptr %20) #10
  %46 = load ptr, ptr %11, align 8, !tbaa !80
  %47 = getelementptr inbounds nuw %struct.AVFrame, ptr %46, i32 0, i32 0
  %48 = load i32, ptr %15, align 4, !tbaa !37
  %49 = sext i32 %48 to i64
  %50 = getelementptr inbounds [8 x ptr], ptr %47, i64 0, i64 %49
  %51 = load ptr, ptr %50, align 8, !tbaa !109
  %52 = load i32, ptr %18, align 4, !tbaa !37
  %53 = load ptr, ptr %11, align 8, !tbaa !80
  %54 = getelementptr inbounds nuw %struct.AVFrame, ptr %53, i32 0, i32 1
  %55 = load i32, ptr %15, align 4, !tbaa !37
  %56 = sext i32 %55 to i64
  %57 = getelementptr inbounds [8 x i32], ptr %54, i64 0, i64 %56
  %58 = load i32, ptr %57, align 4, !tbaa !37
  %59 = mul nsw i32 %52, %58
  %60 = sext i32 %59 to i64
  %61 = getelementptr inbounds i8, ptr %51, i64 %60
  store ptr %61, ptr %20, align 8, !tbaa !109
  call void @llvm.lifetime.start.p0(i64 4, ptr %21) #10
  store i32 0, ptr %21, align 4, !tbaa !37
  br label %62

62:                                               ; preds = %86, %45
  %63 = load i32, ptr %21, align 4, !tbaa !37
  %64 = load i32, ptr %12, align 4, !tbaa !37
  %65 = icmp slt i32 %63, %64
  br i1 %65, label %67, label %66

66:                                               ; preds = %62
  store i32 5, ptr %19, align 4
  call void @llvm.lifetime.end.p0(i64 4, ptr %21) #10
  br label %89

67:                                               ; preds = %62
  %68 = load ptr, ptr %10, align 8, !tbaa !63
  %69 = load i32, ptr %18, align 4, !tbaa !37
  %70 = load i32, ptr %14, align 4, !tbaa !37
  %71 = mul nsw i32 %69, %70
  %72 = load i32, ptr %21, align 4, !tbaa !37
  %73 = add nsw i32 %71, %72
  %74 = sext i32 %73 to i64
  %75 = getelementptr inbounds %struct.AVComplexFloat, ptr %68, i64 %74
  %76 = getelementptr inbounds nuw %struct.AVComplexFloat, ptr %75, i32 0, i32 0
  %77 = load float, ptr %76, align 4, !tbaa !98
  %78 = load float, ptr %16, align 4, !tbaa !73
  %79 = fmul nsz float %77, %78
  %80 = fptosi float %79 to i32
  %81 = call zeroext i8 @av_clip_uint8_c(i32 noundef %80) #12
  %82 = load ptr, ptr %20, align 8, !tbaa !109
  %83 = load i32, ptr %21, align 4, !tbaa !37
  %84 = sext i32 %83 to i64
  %85 = getelementptr inbounds i8, ptr %82, i64 %84
  store i8 %81, ptr %85, align 1, !tbaa !67
  br label %86

86:                                               ; preds = %67
  %87 = load i32, ptr %21, align 4, !tbaa !37
  %88 = add nsw i32 %87, 1
  store i32 %88, ptr %21, align 4, !tbaa !37
  br label %62, !llvm.loop !170

89:                                               ; preds = %66
  call void @llvm.lifetime.end.p0(i64 8, ptr %20) #10
  br label %90

90:                                               ; preds = %89
  %91 = load i32, ptr %18, align 4, !tbaa !37
  %92 = add nsw i32 %91, 1
  store i32 %92, ptr %18, align 4, !tbaa !37
  br label %40, !llvm.loop !171

93:                                               ; preds = %44
  br label %151

94:                                               ; preds = %8
  call void @llvm.lifetime.start.p0(i64 4, ptr %22) #10
  store i32 0, ptr %22, align 4, !tbaa !37
  br label %95

95:                                               ; preds = %147, %94
  %96 = load i32, ptr %22, align 4, !tbaa !37
  %97 = load i32, ptr %13, align 4, !tbaa !37
  %98 = icmp slt i32 %96, %97
  br i1 %98, label %100, label %99

99:                                               ; preds = %95
  store i32 8, ptr %19, align 4
  call void @llvm.lifetime.end.p0(i64 4, ptr %22) #10
  br label %150

100:                                              ; preds = %95
  call void @llvm.lifetime.start.p0(i64 8, ptr %23) #10
  %101 = load ptr, ptr %11, align 8, !tbaa !80
  %102 = getelementptr inbounds nuw %struct.AVFrame, ptr %101, i32 0, i32 0
  %103 = load i32, ptr %15, align 4, !tbaa !37
  %104 = sext i32 %103 to i64
  %105 = getelementptr inbounds [8 x ptr], ptr %102, i64 0, i64 %104
  %106 = load ptr, ptr %105, align 8, !tbaa !109
  %107 = load i32, ptr %22, align 4, !tbaa !37
  %108 = load ptr, ptr %11, align 8, !tbaa !80
  %109 = getelementptr inbounds nuw %struct.AVFrame, ptr %108, i32 0, i32 1
  %110 = load i32, ptr %15, align 4, !tbaa !37
  %111 = sext i32 %110 to i64
  %112 = getelementptr inbounds [8 x i32], ptr %109, i64 0, i64 %111
  %113 = load i32, ptr %112, align 4, !tbaa !37
  %114 = mul nsw i32 %107, %113
  %115 = sext i32 %114 to i64
  %116 = getelementptr inbounds i8, ptr %106, i64 %115
  store ptr %116, ptr %23, align 8, !tbaa !112
  call void @llvm.lifetime.start.p0(i64 4, ptr %24) #10
  store i32 0, ptr %24, align 4, !tbaa !37
  br label %117

117:                                              ; preds = %143, %100
  %118 = load i32, ptr %24, align 4, !tbaa !37
  %119 = load i32, ptr %12, align 4, !tbaa !37
  %120 = icmp slt i32 %118, %119
  br i1 %120, label %122, label %121

121:                                              ; preds = %117
  store i32 11, ptr %19, align 4
  call void @llvm.lifetime.end.p0(i64 4, ptr %24) #10
  br label %146

122:                                              ; preds = %117
  %123 = load ptr, ptr %10, align 8, !tbaa !63
  %124 = load i32, ptr %22, align 4, !tbaa !37
  %125 = load i32, ptr %14, align 4, !tbaa !37
  %126 = mul nsw i32 %124, %125
  %127 = load i32, ptr %24, align 4, !tbaa !37
  %128 = add nsw i32 %126, %127
  %129 = sext i32 %128 to i64
  %130 = getelementptr inbounds %struct.AVComplexFloat, ptr %123, i64 %129
  %131 = getelementptr inbounds nuw %struct.AVComplexFloat, ptr %130, i32 0, i32 0
  %132 = load float, ptr %131, align 4, !tbaa !98
  %133 = load float, ptr %16, align 4, !tbaa !73
  %134 = fmul nsz float %132, %133
  %135 = fptosi float %134 to i32
  %136 = load i32, ptr %17, align 4, !tbaa !37
  %137 = call i32 @av_clip_c(i32 noundef %135, i32 noundef 0, i32 noundef %136) #12
  %138 = trunc i32 %137 to i16
  %139 = load ptr, ptr %23, align 8, !tbaa !112
  %140 = load i32, ptr %24, align 4, !tbaa !37
  %141 = sext i32 %140 to i64
  %142 = getelementptr inbounds i16, ptr %139, i64 %141
  store i16 %138, ptr %142, align 2, !tbaa !114
  br label %143

143:                                              ; preds = %122
  %144 = load i32, ptr %24, align 4, !tbaa !37
  %145 = add nsw i32 %144, 1
  store i32 %145, ptr %24, align 4, !tbaa !37
  br label %117, !llvm.loop !172

146:                                              ; preds = %121
  call void @llvm.lifetime.end.p0(i64 8, ptr %23) #10
  br label %147

147:                                              ; preds = %146
  %148 = load i32, ptr %22, align 4, !tbaa !37
  %149 = add nsw i32 %148, 1
  store i32 %149, ptr %22, align 4, !tbaa !37
  br label %95, !llvm.loop !173

150:                                              ; preds = %99
  br label %151

151:                                              ; preds = %150, %93
  call void @llvm.lifetime.end.p0(i64 4, ptr %17) #10
  ret void
}