; Function Attrs: nofree norecurse nosync nounwind memory(write, argmem: readwrite, inaccessiblemem: none) uwtable
define internal void @get_xoutput(ptr noundef readonly captures(none) %0, ptr noundef readonly captures(none) %1, ptr noundef readonly captures(none) %2, i32 noundef %3, i32 noundef %4, i32 noundef %5, i32 noundef %6, float noundef %7) #10 {
  %9 = getelementptr inbounds nuw i8, ptr %0, i64 1560
  %10 = load i32, ptr %9, align 8, !tbaa !55
  %notmask = shl nsw i32 -1, %10
  %11 = xor i32 %notmask, -1
  %12 = shl nsw i32 %11, 4
  %13 = uitofp nneg i32 %12 to float
  %14 = fmul nsz float %7, %13
  %15 = icmp eq i32 %10, 8
  %16 = icmp sgt i32 %4, 0
  br i1 %15, label %.preheader, label %.preheader44

.preheader44:                                     ; preds = %8
  br i1 %16, label %.lr.ph48, label %.loopexit

.lr.ph48:                                         ; preds = %.preheader44
  %17 = sext i32 %6 to i64
  %18 = getelementptr inbounds [8 x ptr], ptr %2, i64 0, i64 %17
  %19 = load ptr, ptr %18, align 8, !tbaa !97
  %20 = icmp sgt i32 %3, 0
  br i1 %20, label %.lr.ph.us.preheader, label %.loopexit

.lr.ph.us.preheader:                              ; preds = %.lr.ph48
  %21 = getelementptr inbounds nuw i8, ptr %2, i64 64
  %22 = getelementptr inbounds [8 x i32], ptr %21, i64 0, i64 %17
  %23 = load i32, ptr %22, align 4, !tbaa !49
  %24 = sext i32 %23 to i64
  %25 = sext i32 %5 to i64
  %wide.trip.count61 = zext nneg i32 %4 to i64
  %wide.trip.count = zext nneg i32 %3 to i64
  br label %.lr.ph.us

.lr.ph.us:                                        ; preds = %.lr.ph.us.preheader, %._crit_edge.us
  %indvars.iv58 = phi i64 [ 0, %.lr.ph.us.preheader ], [ %indvars.iv.next59, %._crit_edge.us ]
  %26 = mul nsw i64 %indvars.iv58, %24
  %27 = getelementptr inbounds i8, ptr %19, i64 %26
  %28 = mul nsw i64 %indvars.iv58, %25
  %invariant.gep = getelementptr %struct.AVComplexFloat, ptr %1, i64 %28
  br label %29

29:                                               ; preds = %.lr.ph.us, %29
  %indvars.iv = phi i64 [ 0, %.lr.ph.us ], [ %indvars.iv.next, %29 ]
  %gep = getelementptr %struct.AVComplexFloat, ptr %invariant.gep, i64 %indvars.iv
  %30 = load float, ptr %gep, align 4, !tbaa !86
  %31 = fmul nsz float %14, %30
  %32 = fptosi float %31 to i32
  %33 = icmp slt i32 %32, 0
  %..i.us = tail call i32 @llvm.smin.i32(i32 %32, i32 %11)
  %34 = trunc i32 %..i.us to i16
  %35 = select i1 %33, i16 0, i16 %34
  %36 = getelementptr inbounds nuw i16, ptr %27, i64 %indvars.iv
  store i16 %35, ptr %36, align 2, !tbaa !98
  %indvars.iv.next = add nuw nsw i64 %indvars.iv, 1
  %exitcond.not = icmp eq i64 %indvars.iv.next, %wide.trip.count
  br i1 %exitcond.not, label %._crit_edge.us, label %29, !llvm.loop !152

._crit_edge.us:                                   ; preds = %29
  %indvars.iv.next59 = add nuw nsw i64 %indvars.iv58, 1
  %exitcond62.not = icmp eq i64 %indvars.iv.next59, %wide.trip.count61
  br i1 %exitcond62.not, label %.loopexit, label %.lr.ph.us, !llvm.loop !153

.preheader:                                       ; preds = %8
  br i1 %16, label %.lr.ph51, label %.loopexit

.lr.ph51:                                         ; preds = %.preheader
  %37 = sext i32 %6 to i64
  %38 = getelementptr inbounds [8 x ptr], ptr %2, i64 0, i64 %37
  %39 = getelementptr inbounds nuw i8, ptr %2, i64 64
  %40 = getelementptr inbounds [8 x i32], ptr %39, i64 0, i64 %37
  %41 = icmp sgt i32 %3, 0
  br i1 %41, label %.lr.ph.us52.preheader, label %.loopexit

.lr.ph.us52.preheader:                            ; preds = %.lr.ph51
  %42 = sext i32 %5 to i64
  %wide.trip.count71 = zext nneg i32 %4 to i64
  %wide.trip.count66 = zext nneg i32 %3 to i64
  br label %.lr.ph.us52

.lr.ph.us52:                                      ; preds = %.lr.ph.us52.preheader, %._crit_edge.us53
  %indvars.iv68 = phi i64 [ 0, %.lr.ph.us52.preheader ], [ %indvars.iv.next69, %._crit_edge.us53 ]
  %43 = load ptr, ptr %38, align 8, !tbaa !97
  %44 = load i32, ptr %40, align 4, !tbaa !49
  %45 = sext i32 %44 to i64
  %46 = mul nsw i64 %indvars.iv68, %45
  %47 = getelementptr inbounds i8, ptr %43, i64 %46
  %48 = mul nsw i64 %indvars.iv68, %42
  %invariant.gep74 = getelementptr %struct.AVComplexFloat, ptr %1, i64 %48
  br label %49

49:                                               ; preds = %.lr.ph.us52, %49
  %indvars.iv63 = phi i64 [ 0, %.lr.ph.us52 ], [ %indvars.iv.next64, %49 ]
  %gep75 = getelementptr %struct.AVComplexFloat, ptr %invariant.gep74, i64 %indvars.iv63
  %50 = load float, ptr %gep75, align 4, !tbaa !86
  %51 = fmul nsz float %14, %50
  %52 = fptosi float %51 to i32
  %.not.i.us = icmp ult i32 %52, 256
  %isnotneg.i.us = icmp sgt i32 %52, -1
  %53 = sext i1 %isnotneg.i.us to i8
  %54 = trunc nuw i32 %52 to i8
  %.0.i.us = select i1 %.not.i.us, i8 %54, i8 %53
  %55 = getelementptr inbounds nuw i8, ptr %47, i64 %indvars.iv63
  store i8 %.0.i.us, ptr %55, align 1, !tbaa !57
  %indvars.iv.next64 = add nuw nsw i64 %indvars.iv63, 1
  %exitcond67.not = icmp eq i64 %indvars.iv.next64, %wide.trip.count66
  br i1 %exitcond67.not, label %._crit_edge.us53, label %49, !llvm.loop !154

._crit_edge.us53:                                 ; preds = %49
  %indvars.iv.next69 = add nuw nsw i64 %indvars.iv68, 1
  %exitcond72.not = icmp eq i64 %indvars.iv.next69, %wide.trip.count71
  br i1 %exitcond72.not, label %.loopexit, label %.lr.ph.us52, !llvm.loop !155

.loopexit:                                        ; preds = %._crit_edge.us, %._crit_edge.us53, %.lr.ph51, %.lr.ph48, %.preheader44, %.preheader
  ret void
}